; Function Attrs: nounwind uwtable
define void @lv_indev_enable(ptr noundef captures(address_is_null) %0, i1 noundef zeroext %1) local_unnamed_addr #0 {
  %.not = icmp eq ptr %0, null
  br i1 %.not, label %9, label %3

3:                                                ; preds = %2
  %4 = getelementptr inbounds nuw i8, ptr %0, i64 28
  %5 = load i8, ptr %4, align 4
  %6 = select i1 %1, i8 4, i8 0
  %7 = and i8 %5, -5
  %8 = or disjoint i8 %7, %6
  store i8 %8, ptr %4, align 4
  br label %.loopexit

9:                                                ; preds = %2
  %10 = tail call ptr @lv_ll_get_head(ptr noundef nonnull getelementptr inbounds nuw (i8, ptr @lv_global, i64 128)) #11
  %.not78 = icmp eq ptr %10, null
  br i1 %.not78, label %.loopexit, label %lv_indev_get_next.exit.lr.ph

lv_indev_get_next.exit.lr.ph:                     ; preds = %9
  %11 = select i1 %1, i8 4, i8 0
  br label %lv_indev_get_next.exit

lv_indev_get_next.exit:                           ; preds = %lv_indev_get_next.exit.lr.ph, %lv_indev_get_next.exit
  %.09 = phi ptr [ %10, %lv_indev_get_next.exit.lr.ph ], [ %16, %lv_indev_get_next.exit ]
  %12 = getelementptr inbounds nuw i8, ptr %.09, i64 28
  %13 = load i8, ptr %12, align 4
  %14 = and i8 %13, -5
  %15 = or disjoint i8 %14, %11
  store i8 %15, ptr %12, align 4
  %16 = tail call ptr @lv_ll_get_next(ptr noundef nonnull getelementptr inbounds nuw (i8, ptr @lv_global, i64 128), ptr noundef nonnull %.09) #11
  %.not7 = icmp eq ptr %16, null
  br i1 %.not7, label %.loopexit, label %lv_indev_get_next.exit, !llvm.loop !119

.loopexit:                                        ; preds = %lv_indev_get_next.exit, %9, %3
  ret void
}